target datalayout = "e-m:e-p270:32:32-p271:32:32-p272:64:64-i64:64-i128:128-f80:128-n8:16:32:64-S128"
target triple = "x86_64-pc-linux-gnu"

%struct.sct_st = type { i32, ptr, i64, ptr, i64, i64, ptr, i64, i8, i8, ptr, i64, i32, i32, i32 }

@.str = private unnamed_addr constant [30 x i8] c"../openssl/crypto/ct/ct_sct.c\00", align 1
@__func__.SCT_set1_log_id = private unnamed_addr constant [16 x i8] c"SCT_set1_log_id\00", align 1

; Function Attrs: nounwind uwtable
define i32 @SCT_set1_log_id(ptr noundef %0, ptr noundef %1, i64 noundef %2) #0 {
  %4 = alloca i32, align 4
  %5 = alloca ptr, align 8
  %6 = alloca ptr, align 8
  %7 = alloca i64, align 8
  store ptr %0, ptr %5, align 8, !tbaa !3
  store ptr %1, ptr %6, align 8, !tbaa !23
  store i64 %2, ptr %7, align 8, !tbaa !24
  %8 = load ptr, ptr %5, align 8, !tbaa !3
  %9 = getelementptr inbounds nuw %struct.sct_st, ptr %8, i32 0, i32 0
  %10 = load i32, ptr %9, align 8, !tbaa !13
  %11 = icmp eq i32 %10, 0
  br i1 %11, label %12, label %16

12:                                               ; preds = %3
  %13 = load i64, ptr %7, align 8, !tbaa !24
  %14 = icmp ne i64 %13, 32
  br i1 %14, label %15, label %16

15:                                               ; preds = %12
  call void @ERR_new()
  call void @ERR_set_debug(ptr noundef @.str, i32 noundef 95, ptr noundef @__func__.SCT_set1_log_id)
  call void (i32, i32, ptr, ...) @ERR_set_error(i32 noundef 50, i32 noundef 100, ptr noundef null)
  store i32 0, ptr %4, align 4
  br label %47

16:                                               ; preds = %12, %3
  %17 = load ptr, ptr %5, align 8, !tbaa !3
  %18 = getelementptr inbounds nuw %struct.sct_st, ptr %17, i32 0, i32 3
  %19 = load ptr, ptr %18, align 8, !tbaa !14
  call void @CRYPTO_free(ptr noundef %19, ptr noundef @.str, i32 noundef 99)
  %20 = load ptr, ptr %5, align 8, !tbaa !3
  %21 = getelementptr inbounds nuw %struct.sct_st, ptr %20, i32 0, i32 3
  store ptr null, ptr %21, align 8, !tbaa !14
  %22 = load ptr, ptr %5, align 8, !tbaa !3
  %23 = getelementptr inbounds nuw %struct.sct_st, ptr %22, i32 0, i32 4
  store i64 0, ptr %23, align 8, !tbaa !25
  %24 = load ptr, ptr %5, align 8, !tbaa !3
  %25 = getelementptr inbounds nuw %struct.sct_st, ptr %24, i32 0, i32 14
  store i32 0, ptr %25, align 8, !tbaa !22
  %26 = load ptr, ptr %6, align 8, !tbaa !23
  %27 = icmp ne ptr %26, null
  br i1 %27, label %28, label %46

28:                                               ; preds = %16
  %29 = load i64, ptr %7, align 8, !tbaa !24
  %30 = icmp ugt i64 %29, 0
  br i1 %30, label %31, label %46

31:                                               ; preds = %28
  %32 = load ptr, ptr %6, align 8, !tbaa !23
  %33 = load i64, ptr %7, align 8, !tbaa !24
  %34 = call noalias ptr @CRYPTO_memdup(ptr noundef %32, i64 noundef %33, ptr noundef @.str, i32 noundef 105)
  %35 = load ptr, ptr %5, align 8, !tbaa !3
  %36 = getelementptr inbounds nuw %struct.sct_st, ptr %35, i32 0, i32 3
  store ptr %34, ptr %36, align 8, !tbaa !14
  %37 = load ptr, ptr %5, align 8, !tbaa !3
  %38 = getelementptr inbounds nuw %struct.sct_st, ptr %37, i32 0, i32 3
  %39 = load ptr, ptr %38, align 8, !tbaa !14
  %40 = icmp eq ptr %39, null
  br i1 %40, label %41, label %42

41:                                               ; preds = %31
  store i32 0, ptr %4, align 4
  br label %47

42:                                               ; preds = %31
  %43 = load i64, ptr %7, align 8, !tbaa !24
  %44 = load ptr, ptr %5, align 8, !tbaa !3
  %45 = getelementptr inbounds nuw %struct.sct_st, ptr %44, i32 0, i32 4
  store i64 %43, ptr %45, align 8, !tbaa !25
  br label %46

46:                                               ; preds = %42, %28, %16
  store i32 1, ptr %4, align 4
  br label %47

47:                                               ; preds = %46, %41, %15
  %48 = load i32, ptr %4, align 4
  ret i32 %48
}