; Function Attrs: nounwind uwtable
define range(i32 0, 2) i32 @SCT_set1_log_id(ptr noundef captures(none) %0, ptr noundef %1, i64 noundef %2) local_unnamed_addr #0 {
  %4 = load i32, ptr %0, align 8, !tbaa !11
  %5 = icmp eq i32 %4, 0
  %6 = icmp ne i64 %2, 32
  %or.cond = and i1 %6, %5
  br i1 %or.cond, label %7, label %8

7:                                                ; preds = %3
  tail call void @ERR_new() #7
  tail call void @ERR_set_debug(ptr noundef nonnull @.str, i32 noundef 95, ptr noundef nonnull @__func__.SCT_set1_log_id) #7
  tail call void (i32, i32, ptr, ...) @ERR_set_error(i32 noundef 50, i32 noundef 100, ptr noundef null) #7
  br label %19

8:                                                ; preds = %3
  %9 = getelementptr inbounds nuw i8, ptr %0, i64 24
  %10 = load ptr, ptr %9, align 8, !tbaa !12
  tail call void @CRYPTO_free(ptr noundef %10, ptr noundef nonnull @.str, i32 noundef 99) #7
  %11 = getelementptr inbounds nuw i8, ptr %0, i64 32
  %12 = getelementptr inbounds nuw i8, ptr %0, i64 96
  store i32 0, ptr %12, align 8, !tbaa !16
  %13 = icmp ne ptr %1, null
  %14 = icmp ne i64 %2, 0
  %or.cond3 = and i1 %13, %14
  tail call void @llvm.memset.p0.i64(ptr noundef nonnull align 8 dereferenceable(16) %9, i8 0, i64 16, i1 false)
  br i1 %or.cond3, label %15, label %19

15:                                               ; preds = %8
  %16 = tail call noalias ptr @CRYPTO_memdup(ptr noundef nonnull %1, i64 noundef %2, ptr noundef nonnull @.str, i32 noundef 105) #7
  store ptr %16, ptr %9, align 8, !tbaa !12
  %17 = icmp eq ptr %16, null
  br i1 %17, label %19, label %18

18:                                               ; preds = %15
  store i64 %2, ptr %11, align 8, !tbaa !17
  br label %19

19:                                               ; preds = %8, %18, %15, %7
  %.0 = phi i32 [ 0, %7 ], [ 0, %15 ], [ 1, %18 ], [ 1, %8 ]
  ret i32 %.0
}